; Function Attrs: mustprogress uwtable
define internal void @_ZN11opencv_testL46gtest_Size_MatType_stackblur3x3_EvalGenerator_Ev(ptr dead_on_unwind noalias writable sret(%"class.testing::internal::ParamGenerator.164") align 8 %0) #4 {
  %2 = alloca %"class.testing::internal::CartesianProductHolder2.345", align 8
  call void @llvm.lifetime.start.p0(i64 44, ptr nonnull %2) #30
  %.sroa.02.0.copyload = load i64, ptr @_ZN4perfL6sz720pE, align 8
  %.sroa.01.0.copyload = load i64, ptr @_ZN4perfL7sz1080pE, align 8
  %.sroa.0.0.copyload = load i64, ptr @_ZN4perfL7sz2160pE, align 8
  store i64 %.sroa.02.0.copyload, ptr %2, align 8, !alias.scope !534
  %3 = getelementptr inbounds nuw i8, ptr %2, i64 8
  store i64 %.sroa.01.0.copyload, ptr %3, align 8, !alias.scope !534
  %4 = getelementptr inbounds nuw i8, ptr %2, i64 16
  store i64 %.sroa.0.0.copyload, ptr %4, align 8, !alias.scope !534
  %5 = getelementptr inbounds nuw i8, ptr %2, i64 24
  store i32 0, ptr %5, align 8, !tbaa !73, !alias.scope !534
  %6 = getelementptr inbounds nuw i8, ptr %2, i64 28
  store i32 24, ptr %6, align 4, !tbaa !75, !alias.scope !534
  %7 = getelementptr inbounds nuw i8, ptr %2, i64 32
  store i32 2, ptr %7, align 8, !tbaa !76, !alias.scope !534
  %8 = getelementptr inbounds nuw i8, ptr %2, i64 36
  store i32 3, ptr %8, align 4, !tbaa !77, !alias.scope !534
  %9 = getelementptr inbounds nuw i8, ptr %2, i64 40
  store i32 5, ptr %9, align 8, !tbaa !78, !alias.scope !534
  call void @_ZNK7testing8internal23CartesianProductHolder2INS0_11ValueArray3IN2cv5Size_IiEES5_S5_EENS0_11ValueArray5IiiiiiEEEcvNS0_14ParamGeneratorISt5tupleIJT_T0_EEEEIS5_N4perf7MatTypeEEEv(ptr dead_on_unwind writable sret(%"class.testing::internal::ParamGenerator.164") align 8 %0, ptr noundef nonnull align 4 dereferenceable(44) %2)
  call void @llvm.lifetime.end.p0(i64 44, ptr nonnull %2) #30
  ret void
}